target datalayout = "e-m:e-p270:32:32-p271:32:32-p272:64:64-i64:64-i128:128-f80:128-n8:16:32:64-S128"
target triple = "x86_64-pc-linux-gnu"

@.str.3 = private unnamed_addr constant [17 x i8] c"ubx.msg_class_id\00", align 1
@.str.506 = private unnamed_addr constant [21 x i8] c"ubx.rxm.sfrbx.gnssid\00", align 1
@proto_register_ubx.ett = internal global [1306 x ptr] zeroinitializer, align 16
@ett_ubx_nav_sat_sv_info = internal global [255 x i32] zeroinitializer, align 16
@ett_ubx_cfg_gnss_block = internal global [255 x i32] zeroinitializer, align 16
@ett_ubx_nav_sbas_sv_info = internal global [255 x i32] zeroinitializer, align 16
@ett_ubx_rxm_rawx_meas = internal global [255 x i32] zeroinitializer, align 16
@ett_ubx_rxm_measx_meas = internal global [255 x i32] zeroinitializer, align 16
@.str.526 = private unnamed_addr constant [13 x i8] c"UBX Protocol\00", align 1
@.str.527 = private unnamed_addr constant [4 x i8] c"UBX\00", align 1
@.str.528 = private unnamed_addr constant [4 x i8] c"ubx\00", align 1
@proto_ubx = internal global i32 0, align 4
@ubx_handle = internal global ptr null, align 8
@.str.529 = private unnamed_addr constant [23 x i8] c"UBX Message Class & ID\00", align 1
@ubx_class_id_dissector_table = internal global ptr null, align 8
@.str.530 = private unnamed_addr constant [27 x i8] c"UBX-RXM-SFRBX GNSS Type ID\00", align 1
@ubx_gnssid_dissector_table = internal global ptr null, align 8

; Function Attrs: nounwind uwtable
define hidden void @proto_register_ubx() #0 {
  %1 = alloca ptr, align 8
  %2 = alloca i16, align 2
  store i16 0, ptr %2, align 2
  br label %3

3:                                                ; preds = %15, %0
  %4 = load i16, ptr %2, align 2
  %5 = zext i16 %4 to i64
  %6 = icmp ult i64 %5, 31
  br i1 %6, label %7, label %18

7:                                                ; preds = %3
  %8 = load i16, ptr %2, align 2
  %9 = zext i16 %8 to i64
  %10 = getelementptr [31 x ptr], ptr @proto_register_ubx.ett_part, i64 0, i64 %9
  %11 = load ptr, ptr %10, align 8
  %12 = load i16, ptr %2, align 2
  %13 = zext i16 %12 to i64
  %14 = getelementptr [1306 x ptr], ptr @proto_register_ubx.ett, i64 0, i64 %13
  store ptr %11, ptr %14, align 8
  br label %15

15:                                               ; preds = %7
  %16 = load i16, ptr %2, align 2
  %17 = add i16 %16, 1
  store i16 %17, ptr %2, align 2
  br label %3, !llvm.loop !4

18:                                               ; preds = %3
  store i16 0, ptr %2, align 2
  br label %19

19:                                               ; preds = %31, %18
  %20 = load i16, ptr %2, align 2
  %21 = zext i16 %20 to i64
  %22 = icmp ult i64 %21, 255
  br i1 %22, label %23, label %34

23:                                               ; preds = %19
  %24 = load i16, ptr %2, align 2
  %25 = zext i16 %24 to i64
  %26 = getelementptr [255 x i32], ptr @ett_ubx_nav_sat_sv_info, i64 0, i64 %25
  %27 = load i16, ptr %2, align 2
  %28 = zext i16 %27 to i64
  %29 = add i64 %28, 31
  %30 = getelementptr [1306 x ptr], ptr @proto_register_ubx.ett, i64 0, i64 %29
  store ptr %26, ptr %30, align 8
  br label %31

31:                                               ; preds = %23
  %32 = load i16, ptr %2, align 2
  %33 = add i16 %32, 1
  store i16 %33, ptr %2, align 2
  br label %19, !llvm.loop !6

34:                                               ; preds = %19
  store i16 0, ptr %2, align 2
  br label %35

35:                                               ; preds = %48, %34
  %36 = load i16, ptr %2, align 2
  %37 = zext i16 %36 to i64
  %38 = icmp ult i64 %37, 255
  br i1 %38, label %39, label %51

39:                                               ; preds = %35
  %40 = load i16, ptr %2, align 2
  %41 = zext i16 %40 to i64
  %42 = getelementptr [255 x i32], ptr @ett_ubx_cfg_gnss_block, i64 0, i64 %41
  %43 = load i16, ptr %2, align 2
  %44 = zext i16 %43 to i64
  %45 = add i64 %44, 31
  %46 = add i64 %45, 255
  %47 = getelementptr [1306 x ptr], ptr @proto_register_ubx.ett, i64 0, i64 %46
  store ptr %42, ptr %47, align 8
  br label %48

48:                                               ; preds = %39
  %49 = load i16, ptr %2, align 2
  %50 = add i16 %49, 1
  store i16 %50, ptr %2, align 2
  br label %35, !llvm.loop !7

51:                                               ; preds = %35
  store i16 0, ptr %2, align 2
  br label %52

52:                                               ; preds = %66, %51
  %53 = load i16, ptr %2, align 2
  %54 = zext i16 %53 to i64
  %55 = icmp ult i64 %54, 255
  br i1 %55, label %56, label %69

56:                                               ; preds = %52
  %57 = load i16, ptr %2, align 2
  %58 = zext i16 %57 to i64
  %59 = getelementptr [255 x i32], ptr @ett_ubx_nav_sbas_sv_info, i64 0, i64 %58
  %60 = load i16, ptr %2, align 2
  %61 = zext i16 %60 to i64
  %62 = add i64 %61, 31
  %63 = add i64 %62, 255
  %64 = add i64 %63, 255
  %65 = getelementptr [1306 x ptr], ptr @proto_register_ubx.ett, i64 0, i64 %64
  store ptr %59, ptr %65, align 8
  br label %66

66:                                               ; preds = %56
  %67 = load i16, ptr %2, align 2
  %68 = add i16 %67, 1
  store i16 %68, ptr %2, align 2
  br label %52, !llvm.loop !8

69:                                               ; preds = %52
  store i16 0, ptr %2, align 2
  br label %70

70:                                               ; preds = %85, %69
  %71 = load i16, ptr %2, align 2
  %72 = zext i16 %71 to i64
  %73 = icmp ult i64 %72, 255
  br i1 %73, label %74, label %88

74:                                               ; preds = %70
  %75 = load i16, ptr %2, align 2
  %76 = zext i16 %75 to i64
  %77 = getelementptr [255 x i32], ptr @ett_ubx_rxm_rawx_meas, i64 0, i64 %76
  %78 = load i16, ptr %2, align 2
  %79 = zext i16 %78 to i64
  %80 = add i64 %79, 31
  %81 = add i64 %80, 255
  %82 = add i64 %81, 255
  %83 = add i64 %82, 255
  %84 = getelementptr [1306 x ptr], ptr @proto_register_ubx.ett, i64 0, i64 %83
  store ptr %77, ptr %84, align 8
  br label %85

85:                                               ; preds = %74
  %86 = load i16, ptr %2, align 2
  %87 = add i16 %86, 1
  store i16 %87, ptr %2, align 2
  br label %70, !llvm.loop !9

88:                                               ; preds = %70
  store i16 0, ptr %2, align 2
  br label %89

89:                                               ; preds = %105, %88
  %90 = load i16, ptr %2, align 2
  %91 = zext i16 %90 to i64
  %92 = icmp ult i64 %91, 255
  br i1 %92, label %93, label %108

93:                                               ; preds = %89
  %94 = load i16, ptr %2, align 2
  %95 = zext i16 %94 to i64
  %96 = getelementptr [255 x i32], ptr @ett_ubx_rxm_measx_meas, i64 0, i64 %95
  %97 = load i16, ptr %2, align 2
  %98 = zext i16 %97 to i64
  %99 = add i64 %98, 31
  %100 = add i64 %99, 255
  %101 = add i64 %100, 255
  %102 = add i64 %101, 255
  %103 = add i64 %102, 255
  %104 = getelementptr [1306 x ptr], ptr @proto_register_ubx.ett, i64 0, i64 %103
  store ptr %96, ptr %104, align 8
  br label %105

105:                                              ; preds = %93
  %106 = load i16, ptr %2, align 2
  %107 = add i16 %106, 1
  store i16 %107, ptr %2, align 2
  br label %89, !llvm.loop !10

108:                                              ; preds = %89
  %109 = call i32 @proto_register_protocol(ptr noundef @.str.526, ptr noundef @.str.527, ptr noundef @.str.528)
  store i32 %109, ptr @proto_ubx, align 4
  %110 = load i32, ptr @proto_ubx, align 4
  %111 = call ptr @register_dissector(ptr noundef @.str.528, ptr noundef @dissect_ubx, i32 noundef %110)
  store ptr %111, ptr @ubx_handle, align 8
  %112 = load i32, ptr @proto_ubx, align 4
  call void @proto_register_field_array(i32 noundef %112, ptr noundef @proto_register_ubx.hf, i32 noundef 293)
  call void @proto_register_subtree_array(ptr noundef @proto_register_ubx.ett, i32 noundef 1306)
  %113 = load i32, ptr @proto_ubx, align 4
  %114 = call ptr @expert_register_protocol(i32 noundef %113)
  store ptr %114, ptr %1, align 8
  %115 = load ptr, ptr %1, align 8
  call void @expert_register_field_array(ptr noundef %115, ptr noundef @proto_register_ubx.ei, i32 noundef 1)
  %116 = load i32, ptr @proto_ubx, align 4
  %117 = call ptr @register_dissector_table(ptr noundef @.str.3, ptr noundef @.str.529, i32 noundef %116, i32 noundef 5, i32 noundef 2)
  store ptr %117, ptr @ubx_class_id_dissector_table, align 8
  %118 = load i32, ptr @proto_ubx, align 4
  %119 = call ptr @register_dissector_table(ptr noundef @.str.506, ptr noundef @.str.530, i32 noundef %118, i32 noundef 4, i32 noundef 1)
  store ptr %119, ptr @ubx_gnssid_dissector_table, align 8
  ret void
}