; Function Attrs: nounwind uwtable
define hidden void @proto_register_ubx() local_unnamed_addr #0 {
.preheader33.preheader:
  tail call void @llvm.memcpy.p0.p0.i64(ptr noundef nonnull align 16 dereferenceable(248) @proto_register_ubx.ett, ptr noundef nonnull align 16 dereferenceable(248) @proto_register_ubx.ett_part, i64 248, i1 false)
  br label %.preheader33

.preheader33:                                     ; preds = %.preheader33.preheader, %.preheader33
  %indvars.iv = phi i64 [ 0, %.preheader33.preheader ], [ %indvars.iv.next, %.preheader33 ]
  %0 = getelementptr [255 x i32], ptr @ett_ubx_nav_sat_sv_info, i64 0, i64 %indvars.iv
  %1 = add nuw nsw i64 %indvars.iv, 31
  %2 = getelementptr [1306 x ptr], ptr @proto_register_ubx.ett, i64 0, i64 %1
  store ptr %0, ptr %2, align 8
  %indvars.iv.next = add nuw nsw i64 %indvars.iv, 1
  %exitcond.not = icmp eq i64 %indvars.iv.next, 255
  br i1 %exitcond.not, label %.preheader32, label %.preheader33, !llvm.loop !4

.preheader32:                                     ; preds = %.preheader33, %.preheader32
  %indvars.iv42 = phi i64 [ %indvars.iv.next43, %.preheader32 ], [ 0, %.preheader33 ]
  %3 = getelementptr [255 x i32], ptr @ett_ubx_cfg_gnss_block, i64 0, i64 %indvars.iv42
  %4 = add nuw nsw i64 %indvars.iv42, 286
  %5 = getelementptr [1306 x ptr], ptr @proto_register_ubx.ett, i64 0, i64 %4
  store ptr %3, ptr %5, align 8
  %indvars.iv.next43 = add nuw nsw i64 %indvars.iv42, 1
  %exitcond45.not = icmp eq i64 %indvars.iv.next43, 255
  br i1 %exitcond45.not, label %.preheader31, label %.preheader32, !llvm.loop !6

.preheader31:                                     ; preds = %.preheader32, %.preheader31
  %indvars.iv46 = phi i64 [ %indvars.iv.next47, %.preheader31 ], [ 0, %.preheader32 ]
  %6 = getelementptr [255 x i32], ptr @ett_ubx_nav_sbas_sv_info, i64 0, i64 %indvars.iv46
  %7 = add nuw nsw i64 %indvars.iv46, 541
  %8 = getelementptr [1306 x ptr], ptr @proto_register_ubx.ett, i64 0, i64 %7
  store ptr %6, ptr %8, align 8
  %indvars.iv.next47 = add nuw nsw i64 %indvars.iv46, 1
  %exitcond49.not = icmp eq i64 %indvars.iv.next47, 255
  br i1 %exitcond49.not, label %.preheader30, label %.preheader31, !llvm.loop !7

.preheader30:                                     ; preds = %.preheader31, %.preheader30
  %indvars.iv50 = phi i64 [ %indvars.iv.next51, %.preheader30 ], [ 0, %.preheader31 ]
  %9 = getelementptr [255 x i32], ptr @ett_ubx_rxm_rawx_meas, i64 0, i64 %indvars.iv50
  %10 = add nuw nsw i64 %indvars.iv50, 796
  %11 = getelementptr [1306 x ptr], ptr @proto_register_ubx.ett, i64 0, i64 %10
  store ptr %9, ptr %11, align 8
  %indvars.iv.next51 = add nuw nsw i64 %indvars.iv50, 1
  %exitcond53.not = icmp eq i64 %indvars.iv.next51, 255
  br i1 %exitcond53.not, label %.preheader, label %.preheader30, !llvm.loop !8

.preheader:                                       ; preds = %.preheader30, %.preheader
  %indvars.iv54 = phi i64 [ %indvars.iv.next55, %.preheader ], [ 0, %.preheader30 ]
  %12 = getelementptr [255 x i32], ptr @ett_ubx_rxm_measx_meas, i64 0, i64 %indvars.iv54
  %13 = add nuw nsw i64 %indvars.iv54, 1051
  %14 = getelementptr [1306 x ptr], ptr @proto_register_ubx.ett, i64 0, i64 %13
  store ptr %12, ptr %14, align 8
  %indvars.iv.next55 = add nuw nsw i64 %indvars.iv54, 1
  %exitcond57.not = icmp eq i64 %indvars.iv.next55, 255
  br i1 %exitcond57.not, label %15, label %.preheader, !llvm.loop !9

15:                                               ; preds = %.preheader
  %16 = tail call i32 @proto_register_protocol(ptr noundef nonnull @.str.526, ptr noundef nonnull @.str.527, ptr noundef nonnull @.str.528) #5
  store i32 %16, ptr @proto_ubx, align 4
  %17 = tail call ptr @register_dissector(ptr noundef nonnull @.str.528, ptr noundef nonnull @dissect_ubx, i32 noundef %16) #5
  store ptr %17, ptr @ubx_handle, align 8
  %18 = load i32, ptr @proto_ubx, align 4
  tail call void @proto_register_field_array(i32 noundef %18, ptr noundef nonnull @proto_register_ubx.hf, i32 noundef 293) #5
  tail call void @proto_register_subtree_array(ptr noundef nonnull @proto_register_ubx.ett, i32 noundef 1306) #5
  %19 = load i32, ptr @proto_ubx, align 4
  %20 = tail call ptr @expert_register_protocol(i32 noundef %19) #5
  tail call void @expert_register_field_array(ptr noundef %20, ptr noundef nonnull @proto_register_ubx.ei, i32 noundef 1) #5
  %21 = load i32, ptr @proto_ubx, align 4
  %22 = tail call ptr @register_dissector_table(ptr noundef nonnull @.str.3, ptr noundef nonnull @.str.529, i32 noundef %21, i32 noundef 5, i32 noundef 2) #5
  store ptr %22, ptr @ubx_class_id_dissector_table, align 8
  %23 = load i32, ptr @proto_ubx, align 4
  %24 = tail call ptr @register_dissector_table(ptr noundef nonnull @.str.506, ptr noundef nonnull @.str.530, i32 noundef %23, i32 noundef 4, i32 noundef 1) #5
  store ptr %24, ptr @ubx_gnssid_dissector_table, align 8
  ret void
}